target datalayout = "e-m:e-p270:32:32-p271:32:32-p272:64:64-i64:64-i128:128-f80:128-n8:16:32:64-S128"
target triple = "x86_64-pc-linux-gnu"

%"class.icu_77::UObject" = type { ptr }
%"class.icu_77::Locale" = type <{ %"class.icu_77::UObject", [12 x i8], [6 x i8], [4 x i8], [2 x i8], i32, [4 x i8], ptr, [157 x i8], [3 x i8], ptr, i8, [7 x i8] }>

; Function Attrs: mustprogress uwtable
define void @umsg_setLocale_77(ptr noundef %0, ptr noundef %1) #0 personality ptr @__gxx_personality_v0 {
  %3 = alloca ptr, align 8
  %4 = alloca ptr, align 8
  %5 = alloca %"class.icu_77::Locale", align 8
  %6 = alloca ptr, align 8
  %7 = alloca i32, align 4
  store ptr %0, ptr %3, align 8, !tbaa !43
  store ptr %1, ptr %4, align 8, !tbaa !37
  %8 = load ptr, ptr %3, align 8, !tbaa !43
  %9 = icmp eq ptr %8, null
  br i1 %9, label %10, label %11

10:                                               ; preds = %2
  br label %18

11:                                               ; preds = %2
  %12 = load ptr, ptr %3, align 8, !tbaa !43
  call void @llvm.lifetime.start.p0(i64 224, ptr %5) #13
  %13 = load ptr, ptr %4, align 8, !tbaa !37
  call void @_ZN6icu_776LocaleC1EPKcS2_S2_S2_(ptr noundef nonnull align 8 dereferenceable(217) %5, ptr noundef %13, ptr noundef null, ptr noundef null, ptr noundef null)
  %14 = load ptr, ptr %12, align 8, !tbaa !58
  %15 = getelementptr inbounds ptr, ptr %14, i64 8
  %16 = load ptr, ptr %15, align 8
  invoke void %16(ptr noundef nonnull align 8 dereferenceable(512) %12, ptr noundef nonnull align 8 dereferenceable(217) %5)
          to label %17 unwind label %19

17:                                               ; preds = %11
  call void @_ZN6icu_776LocaleD1Ev(ptr noundef nonnull align 8 dereferenceable(217) %5) #13
  call void @llvm.lifetime.end.p0(i64 224, ptr %5) #13
  br label %18

18:                                               ; preds = %17, %10
  ret void

19:                                               ; preds = %11
  %20 = landingpad { ptr, i32 }
          cleanup
  %21 = extractvalue { ptr, i32 } %20, 0
  store ptr %21, ptr %6, align 8
  %22 = extractvalue { ptr, i32 } %20, 1
  store i32 %22, ptr %7, align 4
  call void @_ZN6icu_776LocaleD1Ev(ptr noundef nonnull align 8 dereferenceable(217) %5) #13
  call void @llvm.lifetime.end.p0(i64 224, ptr %5) #13
  br label %23

23:                                               ; preds = %19
  %24 = load ptr, ptr %6, align 8
  %25 = load i32, ptr %7, align 4
  %26 = insertvalue { ptr, i32 } poison, ptr %24, 0
  %27 = insertvalue { ptr, i32 } %26, i32 %25, 1
  resume { ptr, i32 } %27
}