; Function Attrs: mustprogress uwtable
define void @umsg_setLocale_77(ptr noundef %0, ptr noundef %1) local_unnamed_addr #1 personality ptr @__gxx_personality_v0 {
  %3 = alloca %"class.icu_77::Locale", align 8
  %4 = icmp eq ptr %0, null
  br i1 %4, label %10, label %5

5:                                                ; preds = %2
  call void @llvm.lifetime.start.p0(i64 224, ptr nonnull %3) #10
  call void @_ZN6icu_776LocaleC1EPKcS2_S2_S2_(ptr noundef nonnull align 8 dereferenceable(217) %3, ptr noundef %1, ptr noundef null, ptr noundef null, ptr noundef null)
  %6 = load ptr, ptr %0, align 8, !tbaa !34
  %7 = getelementptr inbounds nuw i8, ptr %6, i64 64
  %8 = load ptr, ptr %7, align 8
  invoke void %8(ptr noundef nonnull align 8 dereferenceable(512) %0, ptr noundef nonnull align 8 dereferenceable(217) %3)
          to label %9 unwind label %11

9:                                                ; preds = %5
  call void @_ZN6icu_776LocaleD1Ev(ptr noundef nonnull align 8 dereferenceable(217) %3) #10
  call void @llvm.lifetime.end.p0(i64 224, ptr nonnull %3) #10
  br label %10

10:                                               ; preds = %2, %9
  ret void

11:                                               ; preds = %5
  %12 = landingpad { ptr, i32 }
          cleanup
  call void @_ZN6icu_776LocaleD1Ev(ptr noundef nonnull align 8 dereferenceable(217) %3) #10
  call void @llvm.lifetime.end.p0(i64 224, ptr nonnull %3) #10
  resume { ptr, i32 } %12
}